target datalayout = "e-m:e-p270:32:32-p271:32:32-p272:64:64-i64:64-i128:128-f80:128-n8:16:32:64-S128"
target triple = "x86_64-pc-linux-gnu"

%struct.Vec_Int_t_ = type { i32, i32, ptr }
%struct.Vec_Wec_t_ = type { i32, i32, ptr }

@.str.14 = private unnamed_addr constant [36 x i8] c"Input signature with %d monomials:\0A\00", align 1
@.str.15 = private unnamed_addr constant [26 x i8] c"  -2^%d appears %d times\0A\00", align 1
@.str.16 = private unnamed_addr constant [26 x i8] c"  +2^%d appears %d times\0A\00", align 1

; Function Attrs: nounwind uwtable
define internal ptr @Vec_IntAlloc(i32 noundef %0) #0 {
  %2 = alloca i32, align 4
  %3 = alloca ptr, align 8
  store i32 %0, ptr %2, align 4
  %4 = call noalias ptr @malloc(i64 noundef 16) #10
  store ptr %4, ptr %3, align 8
  %5 = load i32, ptr %2, align 4
  %6 = icmp sgt i32 %5, 0
  br i1 %6, label %7, label %11

7:                                                ; preds = %1
  %8 = load i32, ptr %2, align 4
  %9 = icmp slt i32 %8, 16
  br i1 %9, label %10, label %11

10:                                               ; preds = %7
  store i32 16, ptr %2, align 4
  br label %11

11:                                               ; preds = %10, %7, %1
  %12 = load ptr, ptr %3, align 8
  %13 = getelementptr inbounds %struct.Vec_Int_t_, ptr %12, i32 0, i32 1
  store i32 0, ptr %13, align 4
  %14 = load i32, ptr %2, align 4
  %15 = load ptr, ptr %3, align 8
  %16 = getelementptr inbounds %struct.Vec_Int_t_, ptr %15, i32 0, i32 0
  store i32 %14, ptr %16, align 8
  %17 = load ptr, ptr %3, align 8
  %18 = getelementptr inbounds %struct.Vec_Int_t_, ptr %17, i32 0, i32 0
  %19 = load i32, ptr %18, align 8
  %20 = icmp ne i32 %19, 0
  br i1 %20, label %21, label %28

21:                                               ; preds = %11
  %22 = load ptr, ptr %3, align 8
  %23 = getelementptr inbounds %struct.Vec_Int_t_, ptr %22, i32 0, i32 0
  %24 = load i32, ptr %23, align 8
  %25 = sext i32 %24 to i64
  %26 = mul i64 4, %25
  %27 = call noalias ptr @malloc(i64 noundef %26) #10
  br label %29

28:                                               ; preds = %11
  br label %29

29:                                               ; preds = %28, %21
  %30 = phi ptr [ %27, %21 ], [ null, %28 ]
  %31 = load ptr, ptr %3, align 8
  %32 = getelementptr inbounds %struct.Vec_Int_t_, ptr %31, i32 0, i32 2
  store ptr %30, ptr %32, align 8
  %33 = load ptr, ptr %3, align 8
  ret ptr %33
}

; Function Attrs: nounwind uwtable
define internal void @Vec_IntFree(ptr noundef %0) #0 {
  %2 = alloca ptr, align 8
  store ptr %0, ptr %2, align 8
  %3 = load ptr, ptr %2, align 8
  %4 = getelementptr inbounds %struct.Vec_Int_t_, ptr %3, i32 0, i32 2
  %5 = load ptr, ptr %4, align 8
  %6 = icmp ne ptr %5, null
  br i1 %6, label %7, label %13

7:                                                ; preds = %1
  %8 = load ptr, ptr %2, align 8
  %9 = getelementptr inbounds %struct.Vec_Int_t_, ptr %8, i32 0, i32 2
  %10 = load ptr, ptr %9, align 8
  call void @free(ptr noundef %10) #12
  %11 = load ptr, ptr %2, align 8
  %12 = getelementptr inbounds %struct.Vec_Int_t_, ptr %11, i32 0, i32 2
  store ptr null, ptr %12, align 8
  br label %14

13:                                               ; preds = %1
  br label %14

14:                                               ; preds = %13, %7
  %15 = load ptr, ptr %2, align 8
  %16 = icmp ne ptr %15, null
  br i1 %16, label %17, label %19

17:                                               ; preds = %14
  %18 = load ptr, ptr %2, align 8
  call void @free(ptr noundef %18) #12
  store ptr null, ptr %2, align 8
  br label %20

19:                                               ; preds = %14
  br label %20

20:                                               ; preds = %19, %17
  ret void
}

; Function Attrs: nounwind uwtable
define internal i32 @Vec_IntSize(ptr noundef %0) #0 {
  %2 = alloca ptr, align 8
  store ptr %0, ptr %2, align 8
  %3 = load ptr, ptr %2, align 8
  %4 = getelementptr inbounds %struct.Vec_Int_t_, ptr %3, i32 0, i32 1
  %5 = load i32, ptr %4, align 4
  ret i32 %5
}

; Function Attrs: nounwind uwtable
define internal i32 @Vec_IntAddToEntry(ptr noundef %0, i32 noundef %1, i32 noundef %2) #0 {
  %4 = alloca ptr, align 8
  %5 = alloca i32, align 4
  %6 = alloca i32, align 4
  store ptr %0, ptr %4, align 8
  store i32 %1, ptr %5, align 4
  store i32 %2, ptr %6, align 4
  %7 = load i32, ptr %6, align 4
  %8 = load ptr, ptr %4, align 8
  %9 = getelementptr inbounds %struct.Vec_Int_t_, ptr %8, i32 0, i32 2
  %10 = load ptr, ptr %9, align 8
  %11 = load i32, ptr %5, align 4
  %12 = sext i32 %11 to i64
  %13 = getelementptr inbounds i32, ptr %10, i64 %12
  %14 = load i32, ptr %13, align 4
  %15 = add nsw i32 %14, %7
  store i32 %15, ptr %13, align 4
  ret i32 %15
}

; Function Attrs: nounwind uwtable
define internal ptr @Vec_IntStart(i32 noundef %0) #0 {
  %2 = alloca i32, align 4
  %3 = alloca ptr, align 8
  store i32 %0, ptr %2, align 4
  %4 = load i32, ptr %2, align 4
  %5 = call ptr @Vec_IntAlloc(i32 noundef %4)
  store ptr %5, ptr %3, align 8
  %6 = load i32, ptr %2, align 4
  %7 = load ptr, ptr %3, align 8
  %8 = getelementptr inbounds %struct.Vec_Int_t_, ptr %7, i32 0, i32 1
  store i32 %6, ptr %8, align 4
  %9 = load ptr, ptr %3, align 8
  %10 = getelementptr inbounds %struct.Vec_Int_t_, ptr %9, i32 0, i32 2
  %11 = load ptr, ptr %10, align 8
  %12 = icmp ne ptr %11, null
  br i1 %12, label %13, label %20

13:                                               ; preds = %1
  %14 = load ptr, ptr %3, align 8
  %15 = getelementptr inbounds %struct.Vec_Int_t_, ptr %14, i32 0, i32 2
  %16 = load ptr, ptr %15, align 8
  %17 = load i32, ptr %2, align 4
  %18 = sext i32 %17 to i64
  %19 = mul i64 4, %18
  call void @llvm.memset.p0.i64(ptr align 4 %16, i8 0, i64 %19, i1 false)
  br label %20

20:                                               ; preds = %13, %1
  %21 = load ptr, ptr %3, align 8
  ret ptr %21
}

; Function Attrs: nounwind uwtable
define internal i32 @Abc_MaxInt(i32 noundef %0, i32 noundef %1) #0 {
  %3 = alloca i32, align 4
  %4 = alloca i32, align 4
  store i32 %0, ptr %3, align 4
  store i32 %1, ptr %4, align 4
  %5 = load i32, ptr %3, align 4
  %6 = load i32, ptr %4, align 4
  %7 = icmp sgt i32 %5, %6
  br i1 %7, label %8, label %10

8:                                                ; preds = %2
  %9 = load i32, ptr %3, align 4
  br label %12

10:                                               ; preds = %2
  %11 = load i32, ptr %4, align 4
  br label %12

12:                                               ; preds = %10, %8
  %13 = phi i32 [ %9, %8 ], [ %11, %10 ]
  ret i32 %13
}

; Function Attrs: nounwind uwtable
define internal i32 @Abc_AbsInt(i32 noundef %0) #0 {
  %2 = alloca i32, align 4
  store i32 %0, ptr %2, align 4
  %3 = load i32, ptr %2, align 4
  %4 = icmp slt i32 %3, 0
  br i1 %4, label %5, label %8

5:                                                ; preds = %1
  %6 = load i32, ptr %2, align 4
  %7 = sub nsw i32 0, %6
  br label %10

8:                                                ; preds = %1
  %9 = load i32, ptr %2, align 4
  br label %10

10:                                               ; preds = %8, %5
  %11 = phi i32 [ %7, %5 ], [ %9, %8 ]
  ret i32 %11
}

; Function Attrs: nounwind uwtable
define internal i32 @Vec_IntEntry(ptr noundef %0, i32 noundef %1) #0 {
  %3 = alloca ptr, align 8
  %4 = alloca i32, align 4
  store ptr %0, ptr %3, align 8
  store i32 %1, ptr %4, align 4
  %5 = load ptr, ptr %3, align 8
  %6 = getelementptr inbounds %struct.Vec_Int_t_, ptr %5, i32 0, i32 2
  %7 = load ptr, ptr %6, align 8
  %8 = load i32, ptr %4, align 4
  %9 = sext i32 %8 to i64
  %10 = getelementptr inbounds i32, ptr %7, i64 %9
  %11 = load i32, ptr %10, align 4
  ret i32 %11
}

; Function Attrs: nounwind uwtable
define internal ptr @Vec_WecEntry(ptr noundef %0, i32 noundef %1) #0 {
  %3 = alloca ptr, align 8
  %4 = alloca i32, align 4
  store ptr %0, ptr %3, align 8
  store i32 %1, ptr %4, align 4
  %5 = load ptr, ptr %3, align 8
  %6 = getelementptr inbounds %struct.Vec_Wec_t_, ptr %5, i32 0, i32 2
  %7 = load ptr, ptr %6, align 8
  %8 = load i32, ptr %4, align 4
  %9 = sext i32 %8 to i64
  %10 = getelementptr inbounds %struct.Vec_Int_t_, ptr %7, i64 %9
  ret ptr %10
}

; Function Attrs: nounwind uwtable
define internal i32 @Vec_WecSize(ptr noundef %0) #0 {
  %2 = alloca ptr, align 8
  store ptr %0, ptr %2, align 8
  %3 = load ptr, ptr %2, align 8
  %4 = getelementptr inbounds %struct.Vec_Wec_t_, ptr %3, i32 0, i32 1
  %5 = load i32, ptr %4, align 4
  ret i32 %5
}

; Function Attrs: nounwind uwtable
define void @Gia_PolynPrintStats(ptr noundef %0) #0 {
  %2 = alloca ptr, align 8
  %3 = alloca ptr, align 8
  %4 = alloca ptr, align 8
  %5 = alloca ptr, align 8
  %6 = alloca i32, align 4
  %7 = alloca i32, align 4
  %8 = alloca i32, align 4
  store ptr %0, ptr %2, align 8
  store i32 0, ptr %8, align 4
  %9 = load ptr, ptr %2, align 8
  %10 = call i32 @Vec_WecSize(ptr noundef %9)
  %11 = sdiv i32 %10, 2
  %12 = call i32 (ptr, ...) @printf(ptr noundef @.str.14, i32 noundef %11)
  store i32 0, ptr %6, align 4
  br label %13

13:                                               ; preds = %31, %1
  %14 = load i32, ptr %6, align 4
  %15 = load ptr, ptr %2, align 8
  %16 = call i32 @Vec_WecSize(ptr noundef %15)
  %17 = sdiv i32 %16, 2
  %18 = icmp slt i32 %14, %17
  br i1 %18, label %19, label %34

19:                                               ; preds = %13
  %20 = load ptr, ptr %2, align 8
  %21 = load i32, ptr %6, align 4
  %22 = mul nsw i32 2, %21
  %23 = add nsw i32 %22, 0
  %24 = call ptr @Vec_WecEntry(ptr noundef %20, i32 noundef %23)
  store ptr %24, ptr %3, align 8
  %25 = load i32, ptr %8, align 4
  %26 = load ptr, ptr %3, align 8
  %27 = call i32 @Vec_IntEntry(ptr noundef %26, i32 noundef 0)
  %28 = call i32 @Abc_AbsInt(i32 noundef %27)
  %29 = call i32 @Abc_AbsInt(i32 noundef %28)
  %30 = call i32 @Abc_MaxInt(i32 noundef %25, i32 noundef %29)
  store i32 %30, ptr %8, align 4
  br label %31

31:                                               ; preds = %19
  %32 = load i32, ptr %6, align 4
  %33 = add nsw i32 %32, 1
  store i32 %33, ptr %6, align 4
  br label %13, !llvm.loop !20

34:                                               ; preds = %13
  %35 = load i32, ptr %8, align 4
  %36 = add nsw i32 %35, 1
  %37 = call ptr @Vec_IntStart(i32 noundef %36)
  store ptr %37, ptr %4, align 8
  %38 = load i32, ptr %8, align 4
  %39 = add nsw i32 %38, 1
  %40 = call ptr @Vec_IntStart(i32 noundef %39)
  store ptr %40, ptr %5, align 8
  store i32 0, ptr %6, align 4
  br label %41

41:                                               ; preds = %67, %34
  %42 = load i32, ptr %6, align 4
  %43 = load ptr, ptr %2, align 8
  %44 = call i32 @Vec_WecSize(ptr noundef %43)
  %45 = sdiv i32 %44, 2
  %46 = icmp slt i32 %42, %45
  br i1 %46, label %47, label %70

47:                                               ; preds = %41
  %48 = load ptr, ptr %2, align 8
  %49 = load i32, ptr %6, align 4
  %50 = mul nsw i32 2, %49
  %51 = add nsw i32 %50, 0
  %52 = call ptr @Vec_WecEntry(ptr noundef %48, i32 noundef %51)
  store ptr %52, ptr %3, align 8
  %53 = load ptr, ptr %3, align 8
  %54 = call i32 @Vec_IntEntry(ptr noundef %53, i32 noundef 0)
  store i32 %54, ptr %7, align 4
  %55 = load i32, ptr %7, align 4
  %56 = icmp sgt i32 %55, 0
  br i1 %56, label %57, label %61

57:                                               ; preds = %47
  %58 = load ptr, ptr %4, align 8
  %59 = load i32, ptr %7, align 4
  %60 = call i32 @Vec_IntAddToEntry(ptr noundef %58, i32 noundef %59, i32 noundef 1)
  br label %66

61:                                               ; preds = %47
  %62 = load ptr, ptr %5, align 8
  %63 = load i32, ptr %7, align 4
  %64 = sub nsw i32 0, %63
  %65 = call i32 @Vec_IntAddToEntry(ptr noundef %62, i32 noundef %64, i32 noundef 1)
  br label %66

66:                                               ; preds = %61, %57
  br label %67

67:                                               ; preds = %66
  %68 = load i32, ptr %6, align 4
  %69 = add nsw i32 %68, 1
  store i32 %69, ptr %6, align 4
  br label %41, !llvm.loop !21

70:                                               ; preds = %41
  store i32 0, ptr %6, align 4
  br label %71

71:                                               ; preds = %92, %70
  %72 = load i32, ptr %6, align 4
  %73 = load ptr, ptr %5, align 8
  %74 = call i32 @Vec_IntSize(ptr noundef %73)
  %75 = icmp slt i32 %72, %74
  br i1 %75, label %76, label %80

76:                                               ; preds = %71
  %77 = load ptr, ptr %5, align 8
  %78 = load i32, ptr %6, align 4
  %79 = call i32 @Vec_IntEntry(ptr noundef %77, i32 noundef %78)
  store i32 %79, ptr %7, align 4
  br label %80

80:                                               ; preds = %76, %71
  %81 = phi i1 [ false, %71 ], [ true, %76 ]
  br i1 %81, label %82, label %95

82:                                               ; preds = %80
  %83 = load i32, ptr %7, align 4
  %84 = icmp ne i32 %83, 0
  br i1 %84, label %85, label %91

85:                                               ; preds = %82
  %86 = load i32, ptr %6, align 4
  %87 = call i32 @Abc_AbsInt(i32 noundef %86)
  %88 = sub nsw i32 %87, 1
  %89 = load i32, ptr %7, align 4
  %90 = call i32 (ptr, ...) @printf(ptr noundef @.str.15, i32 noundef %88, i32 noundef %89)
  br label %91

91:                                               ; preds = %85, %82
  br label %92

92:                                               ; preds = %91
  %93 = load i32, ptr %6, align 4
  %94 = add nsw i32 %93, 1
  store i32 %94, ptr %6, align 4
  br label %71, !llvm.loop !22

95:                                               ; preds = %80
  store i32 0, ptr %6, align 4
  br label %96

96:                                               ; preds = %117, %95
  %97 = load i32, ptr %6, align 4
  %98 = load ptr, ptr %4, align 8
  %99 = call i32 @Vec_IntSize(ptr noundef %98)
  %100 = icmp slt i32 %97, %99
  br i1 %100, label %101, label %105

101:                                              ; preds = %96
  %102 = load ptr, ptr %4, align 8
  %103 = load i32, ptr %6, align 4
  %104 = call i32 @Vec_IntEntry(ptr noundef %102, i32 noundef %103)
  store i32 %104, ptr %7, align 4
  br label %105

105:                                              ; preds = %101, %96
  %106 = phi i1 [ false, %96 ], [ true, %101 ]
  br i1 %106, label %107, label %120

107:                                              ; preds = %105
  %108 = load i32, ptr %7, align 4
  %109 = icmp ne i32 %108, 0
  br i1 %109, label %110, label %116

110:                                              ; preds = %107
  %111 = load i32, ptr %6, align 4
  %112 = call i32 @Abc_AbsInt(i32 noundef %111)
  %113 = sub nsw i32 %112, 1
  %114 = load i32, ptr %7, align 4
  %115 = call i32 (ptr, ...) @printf(ptr noundef @.str.16, i32 noundef %113, i32 noundef %114)
  br label %116

116:                                              ; preds = %110, %107
  br label %117

117:                                              ; preds = %116
  %118 = load i32, ptr %6, align 4
  %119 = add nsw i32 %118, 1
  store i32 %119, ptr %6, align 4
  br label %96, !llvm.loop !23

120:                                              ; preds = %105
  %121 = load ptr, ptr %4, align 8
  call void @Vec_IntFree(ptr noundef %121)
  %122 = load ptr, ptr %5, align 8
  call void @Vec_IntFree(ptr noundef %122)
  ret void
}