; Function Attrs: nounwind uwtable
define void @Gia_PolynPrintStats(ptr noundef readonly captures(none) %0) local_unnamed_addr #0 {
  %2 = getelementptr i8, ptr %0, i64 4
  %.val47 = load i32, ptr %2, align 4
  %3 = sdiv i32 %.val47, 2
  %4 = tail call i32 (ptr, ...) @printf(ptr noundef nonnull dereferenceable(1) @.str.14, i32 noundef %3)
  %.val46 = load i32, ptr %2, align 4
  %5 = sdiv i32 %.val46, 2
  %6 = icmp sgt i32 %.val46, 1
  br i1 %6, label %.lr.ph, label %Vec_IntAlloc.exit.i.thread

.lr.ph:                                           ; preds = %1
  %7 = getelementptr i8, ptr %0, i64 8
  %.val49 = load ptr, ptr %7, align 8
  %wide.trip.count = zext nneg i32 %5 to i64
  br label %8

8:                                                ; preds = %.lr.ph, %8
  %indvars.iv = phi i64 [ 0, %.lr.ph ], [ %indvars.iv.next, %8 ]
  %.069 = phi i32 [ 0, %.lr.ph ], [ %13, %8 ]
  %9 = shl nuw nsw i64 %indvars.iv, 1
  %10 = getelementptr %struct.Vec_Int_t_, ptr %.val49, i64 %9, i32 2
  %.val55 = load ptr, ptr %10, align 8
  %11 = load i32, ptr %.val55, align 4
  %12 = tail call range(i32 0, -2147483648) i32 @llvm.abs.i32(i32 %11, i1 true)
  %13 = tail call noundef i32 @llvm.smax.i32(i32 %.069, i32 %12)
  %indvars.iv.next = add nuw nsw i64 %indvars.iv, 1
  %exitcond.not = icmp eq i64 %indvars.iv.next, %wide.trip.count
  br i1 %exitcond.not, label %Vec_IntAlloc.exit.i, label %8, !llvm.loop !22

Vec_IntAlloc.exit.i:                              ; preds = %8
  %14 = add nuw nsw i32 %13, 1
  %or.cond.i.i = icmp samesign ult i32 %13, 15
  %spec.select = select i1 %or.cond.i.i, i32 16, i32 %14
  %15 = zext nneg i32 %spec.select to i64
  %16 = shl nuw nsw i64 %15, 2
  %17 = zext nneg i32 %14 to i64
  br label %Vec_IntAlloc.exit.i.thread

Vec_IntAlloc.exit.i.thread:                       ; preds = %Vec_IntAlloc.exit.i, %1
  %wide.trip.count89 = phi i64 [ 1, %1 ], [ %17, %Vec_IntAlloc.exit.i ]
  %18 = phi i64 [ 64, %1 ], [ %16, %Vec_IntAlloc.exit.i ]
  %19 = tail call noalias ptr @malloc(i64 noundef %18) #25
  %.not.i = icmp eq ptr %19, null
  br i1 %.not.i, label %Vec_IntAlloc.exit.i61, label %20

20:                                               ; preds = %Vec_IntAlloc.exit.i.thread
  %21 = shl nuw nsw i64 %wide.trip.count89, 2
  tail call void @llvm.memset.p0.i64(ptr noundef nonnull align 4 dereferenceable(1) %19, i8 0, i64 %21, i1 false)
  br label %Vec_IntAlloc.exit.i61

Vec_IntAlloc.exit.i61:                            ; preds = %Vec_IntAlloc.exit.i.thread, %20
  %22 = tail call noalias ptr @malloc(i64 noundef %18) #25
  %.not.i62 = icmp eq ptr %22, null
  br i1 %.not.i62, label %Vec_IntStart.exit64, label %23

23:                                               ; preds = %Vec_IntAlloc.exit.i61
  %24 = shl nuw nsw i64 %wide.trip.count89, 2
  tail call void @llvm.memset.p0.i64(ptr noundef nonnull align 4 dereferenceable(1) %22, i8 0, i64 %24, i1 false)
  br label %Vec_IntStart.exit64

Vec_IntStart.exit64:                              ; preds = %Vec_IntAlloc.exit.i61, %23
  br i1 %6, label %.lr.ph72, label %.lr.ph74.preheader

.lr.ph72:                                         ; preds = %Vec_IntStart.exit64
  %25 = getelementptr i8, ptr %0, i64 8
  %.val48 = load ptr, ptr %25, align 8
  %26 = zext nneg i32 %5 to i64
  br label %27

27:                                               ; preds = %.lr.ph72, %27
  %indvars.iv78 = phi i64 [ 0, %.lr.ph72 ], [ %indvars.iv.next79, %27 ]
  %28 = shl nuw nsw i64 %indvars.iv78, 1
  %29 = getelementptr %struct.Vec_Int_t_, ptr %.val48, i64 %28, i32 2
  %.val54 = load ptr, ptr %29, align 8
  %30 = load i32, ptr %.val54, align 4
  %31 = icmp sgt i32 %30, 0
  %.sink = tail call i32 @llvm.abs.i32(i32 %30, i1 true)
  %.sink96 = select i1 %31, ptr %19, ptr %22
  %32 = zext nneg i32 %.sink to i64
  %33 = getelementptr inbounds nuw i32, ptr %.sink96, i64 %32
  %34 = load i32, ptr %33, align 4
  %35 = add nsw i32 %34, 1
  store i32 %35, ptr %33, align 4
  %indvars.iv.next79 = add nuw nsw i64 %indvars.iv78, 1
  %36 = icmp samesign ult i64 %indvars.iv.next79, %26
  br i1 %36, label %27, label %.lr.ph74.preheader, !llvm.loop !23

.lr.ph74.preheader:                               ; preds = %27, %Vec_IntStart.exit64
  br label %.lr.ph74

.lr.ph74:                                         ; preds = %.lr.ph74.preheader, %43
  %indvars.iv81 = phi i64 [ %indvars.iv.next82, %43 ], [ 0, %.lr.ph74.preheader ]
  %37 = getelementptr inbounds nuw i32, ptr %22, i64 %indvars.iv81
  %38 = load i32, ptr %37, align 4
  %.not45 = icmp eq i32 %38, 0
  br i1 %.not45, label %43, label %39

39:                                               ; preds = %.lr.ph74
  %40 = trunc i64 %indvars.iv81 to i32
  %41 = add i32 %40, -1
  %42 = tail call i32 (ptr, ...) @printf(ptr noundef nonnull dereferenceable(1) @.str.15, i32 noundef %41, i32 noundef %38)
  br label %43

43:                                               ; preds = %.lr.ph74, %39
  %indvars.iv.next82 = add nuw nsw i64 %indvars.iv81, 1
  %exitcond85.not = icmp eq i64 %indvars.iv.next82, %wide.trip.count89
  br i1 %exitcond85.not, label %.lr.ph76, label %.lr.ph74, !llvm.loop !24

.lr.ph76:                                         ; preds = %43, %.critedge
  %indvars.iv86 = phi i64 [ %indvars.iv.next87, %.critedge ], [ 0, %43 ]
  %44 = getelementptr inbounds nuw i32, ptr %19, i64 %indvars.iv86
  %45 = load i32, ptr %44, align 4
  %.not = icmp eq i32 %45, 0
  br i1 %.not, label %.critedge, label %46

46:                                               ; preds = %.lr.ph76
  %47 = trunc i64 %indvars.iv86 to i32
  %48 = add i32 %47, -1
  %49 = tail call i32 (ptr, ...) @printf(ptr noundef nonnull dereferenceable(1) @.str.16, i32 noundef %48, i32 noundef %45)
  br label %.critedge

.critedge:                                        ; preds = %.lr.ph76, %46
  %indvars.iv.next87 = add nuw nsw i64 %indvars.iv86, 1
  %exitcond90.not = icmp eq i64 %indvars.iv.next87, %wide.trip.count89
  br i1 %exitcond90.not, label %Vec_IntFree.exit, label %.lr.ph76, !llvm.loop !25

Vec_IntFree.exit:                                 ; preds = %.critedge
  tail call void @free(ptr noundef nonnull %19) #27
  br i1 %.not.i62, label %Vec_IntFree.exit67, label %50

50:                                               ; preds = %Vec_IntFree.exit
  tail call void @free(ptr noundef nonnull %22) #27
  br label %Vec_IntFree.exit67

Vec_IntFree.exit67:                               ; preds = %Vec_IntFree.exit, %50
  ret void
}